target datalayout = "e-m:e-p270:32:32-p271:32:32-p272:64:64-i64:64-i128:128-f80:128-n8:16:32:64-S128"
target triple = "x86_64-pc-linux-gnu"

%"struct.std::_Rb_tree_header" = type { %"struct.std::_Rb_tree_node_base", i64 }
%"struct.std::_Rb_tree_node_base" = type { i32, ptr, ptr, ptr }
%"class.vcg::Point2" = type { [2 x i32] }
%class.AlignPairWidget = type <{ %class.QGLWidget, ptr, ptr, %"class.vcg::Trackball", %"class.vcg::Trackball", [2 x ptr], ptr, ptr, ptr, %"class.std::vector.25", %"class.std::vector.25", i8, i8, [2 x i8], %"class.vcg::Point2", i8, i8, i8, i8 }>
%class.QGLWidget = type { %class.QWidget }
%class.QWidget = type { %class.QObject, %class.QPaintDevice, ptr }
%class.QObject = type { ptr, %class.QScopedPointer }
%class.QScopedPointer = type { ptr }
%class.QPaintDevice = type { ptr, i16, ptr }
%"class.vcg::Trackball" = type <{ %"class.vcg::Transform", %"class.vcg::View", i32, ptr, ptr, ptr, %"class.std::map.17", %"class.vcg::Similarityf", %"class.vcg::Similarityf", %"class.vcg::Similarityf", %"class.vcg::Point3", [4 x i8], %"class.std::vector.25", i8, [3 x i8], i32, i32, %"class.vcg::Quaternion", i8, i8, [2 x i8], %"class.std::__cxx11::list", i32, i8, [3 x i8] }>
%"class.vcg::Transform" = type { %"class.vcg::Similarityf", %"class.vcg::Point3", float }
%"class.vcg::View" = type <{ %"class.vcg::Matrix44", %"class.vcg::Matrix44", %"class.vcg::Matrix44", %"class.vcg::Matrix44", [4 x i32], i8, [3 x i8] }>
%"class.vcg::Matrix44" = type { %"struct.std::array" }
%"struct.std::array" = type { [16 x float] }
%"class.std::map.17" = type { %"class.std::_Rb_tree.18" }
%"class.std::_Rb_tree.18" = type { %"struct.std::_Rb_tree<int, std::pair<const int, vcg::TrackMode *>, std::_Select1st<std::pair<const int, vcg::TrackMode *>>, std::less<int>>::_Rb_tree_impl" }
%"struct.std::_Rb_tree<int, std::pair<const int, vcg::TrackMode *>, std::_Select1st<std::pair<const int, vcg::TrackMode *>>, std::less<int>>::_Rb_tree_impl" = type { %"struct.std::_Rb_tree_key_compare.22", %"struct.std::_Rb_tree_header" }
%"struct.std::_Rb_tree_key_compare.22" = type { %"struct.std::less.23" }
%"struct.std::less.23" = type { i8 }
%"class.vcg::Similarityf" = type { %"class.vcg::Similarity" }
%"class.vcg::Similarity" = type { %"class.vcg::Quaternion", %"class.vcg::Point3", float }
%"class.vcg::Point3" = type { [3 x float] }
%"class.vcg::Quaternion" = type { %"class.vcg::Point4.16" }
%"class.vcg::Point4.16" = type { [4 x float] }
%"class.std::__cxx11::list" = type { %"class.std::__cxx11::_List_base" }
%"class.std::__cxx11::_List_base" = type { %"struct.std::__cxx11::_List_base<vcg::Transform, std::allocator<vcg::Transform>>::_List_impl" }
%"struct.std::__cxx11::_List_base<vcg::Transform, std::allocator<vcg::Transform>>::_List_impl" = type { %"struct.std::__detail::_List_node_header" }
%"struct.std::__detail::_List_node_header" = type { %"struct.std::__detail::_List_node_base", i64 }
%"struct.std::__detail::_List_node_base" = type { ptr, ptr }
%"class.std::vector.25" = type { %"struct.std::_Vector_base.26" }
%"struct.std::_Vector_base.26" = type { %"struct.std::_Vector_base<vcg::Point3<float>, std::allocator<vcg::Point3<float>>>::_Vector_impl" }
%"struct.std::_Vector_base<vcg::Point3<float>, std::allocator<vcg::Point3<float>>>::_Vector_impl" = type { %"struct.std::_Vector_base<vcg::Point3<float>, std::allocator<vcg::Point3<float>>>::_Vector_impl_data" }
%"struct.std::_Vector_base<vcg::Point3<float>, std::allocator<vcg::Point3<float>>>::_Vector_impl_data" = type { ptr, ptr, ptr }

; Function Attrs: mustprogress uwtable
define void @_ZN15AlignPairWidget12initializeGLEv(ptr noundef nonnull align 8 dereferenceable(1367) %0) unnamed_addr #5 align 2 {
  %2 = alloca ptr, align 8
  store ptr %0, ptr %2, align 8
  %3 = load ptr, ptr %2, align 8
  %4 = getelementptr inbounds %class.AlignPairWidget, ptr %3, i32 0, i32 7
  %5 = load ptr, ptr %4, align 8
  %6 = icmp eq ptr %5, null
  br i1 %6, label %7, label %8

7:                                                ; preds = %1
  br label %12

8:                                                ; preds = %1
  call void @_ZN19GLExtensionsManager22initializeGLextensionsEv()
  %9 = getelementptr inbounds %class.AlignPairWidget, ptr %3, i32 0, i32 7
  %10 = load ptr, ptr %9, align 8
  %11 = call noundef ptr @_ZNK9QGLWidget7contextEv(ptr noundef nonnull align 8 dereferenceable(48) %3)
  call void @_ZN26MLSceneGLSharedDataContext7addViewEP10QGLContext(ptr noundef nonnull align 8 dereferenceable(168) %10, ptr noundef %11)
  call void @glClearColor(float noundef 0.000000e+00, float noundef 0.000000e+00, float noundef 0.000000e+00, float noundef 1.000000e+00)
  call void @glEnable(i32 noundef 2896)
  call void @glEnable(i32 noundef 16384)
  call void @glEnable(i32 noundef 2977)
  call void @glEnable(i32 noundef 2903)
  call void @glEnable(i32 noundef 2884)
  call void @glEnable(i32 noundef 2929)
  br label %12

12:                                               ; preds = %8, %7
  ret void
}