; Function Attrs: mustprogress uwtable
define void @_ZN15AlignPairWidget12initializeGLEv(ptr noundef nonnull align 8 dereferenceable(1367) %0) unnamed_addr #9 align 2 {
  %2 = getelementptr inbounds i8, ptr %0, i64 1288
  %3 = load ptr, ptr %2, align 8
  %4 = icmp eq ptr %3, null
  br i1 %4, label %8, label %5

5:                                                ; preds = %1
  tail call void @_ZN19GLExtensionsManager22initializeGLextensionsEv()
  %6 = load ptr, ptr %2, align 8
  %7 = tail call noundef ptr @_ZNK9QGLWidget7contextEv(ptr noundef nonnull align 8 dereferenceable(48) %0)
  tail call void @_ZN26MLSceneGLSharedDataContext7addViewEP10QGLContext(ptr noundef nonnull align 8 dereferenceable(168) %6, ptr noundef %7)
  tail call void @glClearColor(float noundef 0.000000e+00, float noundef 0.000000e+00, float noundef 0.000000e+00, float noundef 1.000000e+00)
  tail call void @glEnable(i32 noundef 2896)
  tail call void @glEnable(i32 noundef 16384)
  tail call void @glEnable(i32 noundef 2977)
  tail call void @glEnable(i32 noundef 2903)
  tail call void @glEnable(i32 noundef 2884)
  tail call void @glEnable(i32 noundef 2929)
  br label %8

8:                                                ; preds = %1, %5
  ret void
}